target datalayout = "e-m:e-p270:32:32-p271:32:32-p272:64:64-i64:64-i128:128-f80:128-n8:16:32:64-S128"
target triple = "x86_64-pc-linux-gnu"

; Function Attrs: nounwind uwtable
define internal void @_gradient_draw_arrow(ptr noundef %0, i32 noundef %1, i32 noundef %2, float noundef %3, ptr noundef %4, i32 noundef %5) #0 {
  %7 = alloca ptr, align 8
  %8 = alloca i32, align 4
  %9 = alloca i32, align 4
  %10 = alloca float, align 4
  %11 = alloca ptr, align 8
  %12 = alloca i32, align 4
  %13 = alloca float, align 4
  %14 = alloca float, align 4
  %15 = alloca float, align 4
  %16 = alloca float, align 4
  %17 = alloca float, align 4
  %18 = alloca float, align 4
  store ptr %0, ptr %7, align 8, !tbaa !188
  store i32 %1, ptr %8, align 4, !tbaa !6
  store i32 %2, ptr %9, align 4, !tbaa !6
  store float %3, ptr %10, align 4, !tbaa !29
  store ptr %4, ptr %11, align 8, !tbaa !30
  store i32 %5, ptr %12, align 4, !tbaa !6
  %19 = load i32, ptr %12, align 4, !tbaa !6
  %20 = icmp slt i32 %19, 3
  br i1 %20, label %21, label %22

21:                                               ; preds = %6
  br label %67

22:                                               ; preds = %6
  call void @llvm.lifetime.start.p0(i64 4, ptr %13) #11
  %23 = load ptr, ptr %11, align 8, !tbaa !30
  %24 = getelementptr inbounds float, ptr %23, i64 0
  %25 = load float, ptr %24, align 4, !tbaa !29
  store float %25, ptr %13, align 4, !tbaa !29
  call void @llvm.lifetime.start.p0(i64 4, ptr %14) #11
  %26 = load ptr, ptr %11, align 8, !tbaa !30
  %27 = getelementptr inbounds float, ptr %26, i64 1
  %28 = load float, ptr %27, align 4, !tbaa !29
  store float %28, ptr %14, align 4, !tbaa !29
  call void @llvm.lifetime.start.p0(i64 4, ptr %15) #11
  %29 = load ptr, ptr %11, align 8, !tbaa !30
  %30 = getelementptr inbounds float, ptr %29, i64 2
  %31 = load float, ptr %30, align 4, !tbaa !29
  store float %31, ptr %15, align 4, !tbaa !29
  call void @llvm.lifetime.start.p0(i64 4, ptr %16) #11
  %32 = load ptr, ptr %11, align 8, !tbaa !30
  %33 = getelementptr inbounds float, ptr %32, i64 3
  %34 = load float, ptr %33, align 4, !tbaa !29
  store float %34, ptr %16, align 4, !tbaa !29
  call void @llvm.lifetime.start.p0(i64 4, ptr %17) #11
  %35 = load ptr, ptr %11, align 8, !tbaa !30
  %36 = getelementptr inbounds float, ptr %35, i64 4
  %37 = load float, ptr %36, align 4, !tbaa !29
  store float %37, ptr %17, align 4, !tbaa !29
  call void @llvm.lifetime.start.p0(i64 4, ptr %18) #11
  %38 = load ptr, ptr %11, align 8, !tbaa !30
  %39 = getelementptr inbounds float, ptr %38, i64 5
  %40 = load float, ptr %39, align 4, !tbaa !29
  store float %40, ptr %18, align 4, !tbaa !29
  %41 = load ptr, ptr %7, align 8, !tbaa !188
  %42 = load float, ptr %17, align 4, !tbaa !29
  %43 = load float, ptr %18, align 4, !tbaa !29
  %44 = load float, ptr %15, align 4, !tbaa !29
  %45 = load float, ptr %16, align 4, !tbaa !29
  %46 = load float, ptr %10, align 4, !tbaa !29
  call void @dt_masks_draw_arrow(ptr noundef %41, float noundef %42, float noundef %43, float noundef %44, float noundef %45, float noundef %46, i32 noundef 1)
  %47 = load ptr, ptr %7, align 8, !tbaa !188
  %48 = load i32, ptr %8, align 4, !tbaa !6
  %49 = load float, ptr %10, align 4, !tbaa !29
  call void @dt_masks_line_stroke(ptr noundef %47, i32 noundef 0, i32 noundef 0, i32 noundef %48, float noundef %49)
  %50 = load ptr, ptr %7, align 8, !tbaa !188
  %51 = load i32, ptr %8, align 4, !tbaa !6
  %52 = load float, ptr %10, align 4, !tbaa !29
  %53 = load float, ptr %13, align 4, !tbaa !29
  %54 = load float, ptr %14, align 4, !tbaa !29
  call void @dt_masks_draw_anchor(ptr noundef %50, i32 noundef %51, float noundef %52, float noundef %53, float noundef %54)
  %55 = load ptr, ptr %7, align 8, !tbaa !188
  %56 = load float, ptr %17, align 4, !tbaa !29
  %57 = fpext reassoc nsz arcp contract afn float %56 to double
  %58 = load float, ptr %18, align 4, !tbaa !29
  %59 = fpext reassoc nsz arcp contract afn float %58 to double
  %60 = load float, ptr %10, align 4, !tbaa !29
  %61 = fdiv reassoc nsz arcp contract afn float 3.000000e+00, %60
  %62 = fpext reassoc nsz arcp contract afn float %61 to double
  call void @cairo_arc(ptr noundef %55, double noundef %57, double noundef %59, double noundef %62, double noundef 0.000000e+00, double noundef 0x401921FB54442D18)
  %63 = load ptr, ptr %7, align 8, !tbaa !188
  call void @cairo_fill_preserve(ptr noundef %63)
  %64 = load ptr, ptr %7, align 8, !tbaa !188
  %65 = load i32, ptr %8, align 4, !tbaa !6
  %66 = load float, ptr %10, align 4, !tbaa !29
  call void @dt_masks_line_stroke(ptr noundef %64, i32 noundef 0, i32 noundef 0, i32 noundef %65, float noundef %66)
  call void @llvm.lifetime.end.p0(i64 4, ptr %18) #11
  call void @llvm.lifetime.end.p0(i64 4, ptr %17) #11
  call void @llvm.lifetime.end.p0(i64 4, ptr %16) #11
  call void @llvm.lifetime.end.p0(i64 4, ptr %15) #11
  call void @llvm.lifetime.end.p0(i64 4, ptr %14) #11
  call void @llvm.lifetime.end.p0(i64 4, ptr %13) #11
  br label %67

67:                                               ; preds = %22, %21
  ret void
}