; Function Attrs: nounwind uwtable
define internal fastcc void @_gradient_draw_arrow(ptr noundef %0, i32 noundef range(i32 0, 2) %1, float noundef %2, ptr noundef readonly captures(none) %3, i32 noundef %4) unnamed_addr #0 {
  %6 = icmp slt i32 %4, 3
  br i1 %6, label %23, label %7

7:                                                ; preds = %5
  %8 = load float, ptr %3, align 4, !tbaa !27
  %9 = getelementptr inbounds nuw i8, ptr %3, i64 4
  %10 = load float, ptr %9, align 4, !tbaa !27
  %11 = getelementptr inbounds nuw i8, ptr %3, i64 8
  %12 = load float, ptr %11, align 4, !tbaa !27
  %13 = getelementptr inbounds nuw i8, ptr %3, i64 12
  %14 = load float, ptr %13, align 4, !tbaa !27
  %15 = getelementptr inbounds nuw i8, ptr %3, i64 16
  %16 = load float, ptr %15, align 4, !tbaa !27
  %17 = getelementptr inbounds nuw i8, ptr %3, i64 20
  %18 = load float, ptr %17, align 4, !tbaa !27
  tail call void @dt_masks_draw_arrow(ptr noundef %0, float noundef %16, float noundef %18, float noundef %12, float noundef %14, float noundef %2, i32 noundef 1) #13
  tail call void @dt_masks_line_stroke(ptr noundef %0, i32 noundef 0, i32 noundef 0, i32 noundef %1, float noundef %2) #13
  tail call void @dt_masks_draw_anchor(ptr noundef %0, i32 noundef %1, float noundef %2, float noundef %8, float noundef %10) #13
  %19 = fpext reassoc nsz arcp contract afn float %16 to double
  %20 = fpext reassoc nsz arcp contract afn float %18 to double
  %21 = fdiv reassoc nsz arcp contract afn float 3.000000e+00, %2
  %22 = fpext reassoc nsz arcp contract afn float %21 to double
  tail call void @cairo_arc(ptr noundef %0, double noundef %19, double noundef %20, double noundef %22, double noundef 0.000000e+00, double noundef 0x401921FB54442D18) #13
  tail call void @cairo_fill_preserve(ptr noundef %0) #13
  tail call void @dt_masks_line_stroke(ptr noundef %0, i32 noundef 0, i32 noundef 0, i32 noundef %1, float noundef %2) #13
  br label %23

23:                                               ; preds = %5, %7
  ret void
}